; Function Attrs: nounwind uwtable
define hidden i32 @mbedtls_ssl_tls13_write_change_cipher_spec(ptr noundef %0) local_unnamed_addr #0 {
  tail call void (ptr, i32, ptr, i32, ptr, ...) @mbedtls_debug_print_msg(ptr noundef %0, i32 noundef 2, ptr noundef nonnull @.str, i32 noundef 1279, ptr noundef nonnull @.str.23) #8
  %2 = getelementptr inbounds nuw i8, ptr %0, i64 112
  %3 = load ptr, ptr %2, align 8, !tbaa !23
  %4 = getelementptr inbounds nuw i8, ptr %3, i64 58
  %5 = load i8, ptr %4, align 2, !tbaa !96
  %.not = icmp eq i8 %5, 0
  br i1 %.not, label %6, label %15

6:                                                ; preds = %1
  %7 = getelementptr inbounds nuw i8, ptr %0, i64 384
  %8 = load ptr, ptr %7, align 8, !tbaa !97
  %9 = getelementptr inbounds nuw i8, ptr %0, i64 400
  store i8 1, ptr %8, align 1, !tbaa !17
  store i64 1, ptr %9, align 8, !tbaa !20
  %10 = getelementptr inbounds nuw i8, ptr %0, i64 392
  store i32 20, ptr %10, align 8, !tbaa !98
  %11 = tail call i32 @mbedtls_ssl_write_record(ptr noundef nonnull %0, i32 noundef 0) #8
  %.not15 = icmp eq i32 %11, 0
  br i1 %.not15, label %12, label %15

12:                                               ; preds = %6
  %13 = load ptr, ptr %2, align 8, !tbaa !23
  %14 = getelementptr inbounds nuw i8, ptr %13, i64 58
  store i8 1, ptr %14, align 2, !tbaa !96
  br label %15

15:                                               ; preds = %1, %6, %12
  %.0 = phi i32 [ %11, %6 ], [ 0, %12 ], [ 0, %1 ]
  tail call void (ptr, i32, ptr, i32, ptr, ...) @mbedtls_debug_print_msg(ptr noundef nonnull %0, i32 noundef 2, ptr noundef nonnull @.str, i32 noundef 1302, ptr noundef nonnull @.str.24) #8
  ret i32 %.0
}